; Function Attrs: mustprogress nofree norecurse nosync nounwind willreturn memory(read, inaccessiblemem: none) uwtable
define noundef i32 @_ZNK3gmx8BiasGrid18numFepLambdaStatesEv(ptr nocapture noundef nonnull readonly align 8 dereferenceable(48) %0) local_unnamed_addr #0 align 2 {
  %2 = getelementptr inbounds i8, ptr %0, i64 24
  %3 = getelementptr inbounds i8, ptr %0, i64 32
  %4 = load ptr, ptr %3, align 8
  %5 = load ptr, ptr %2, align 8
  %.not = icmp eq ptr %4, %5
  br i1 %.not, label %.loopexit, label %.lr.ph.preheader

.lr.ph.preheader:                                 ; preds = %1
  %6 = ptrtoint ptr %4 to i64
  %7 = ptrtoint ptr %5 to i64
  %8 = sub i64 %6, %7
  %9 = sdiv exact i64 %8, 48
  %umax = tail call i64 @llvm.umax.i64(i64 %9, i64 1)
  br label %.lr.ph

10:                                               ; preds = %.lr.ph
  %11 = add nuw i64 %.06, 1
  %exitcond.not = icmp eq i64 %11, %umax
  br i1 %exitcond.not, label %.loopexit, label %.lr.ph, !llvm.loop !20

.lr.ph:                                           ; preds = %.lr.ph.preheader, %10
  %.06 = phi i64 [ %11, %10 ], [ 0, %.lr.ph.preheader ]
  %12 = getelementptr inbounds %"class.gmx::GridAxis", ptr %5, i64 %.06
  %13 = getelementptr inbounds i8, ptr %12, i64 40
  %14 = load i8, ptr %13, align 8
  %15 = trunc i8 %14 to i1
  br i1 %15, label %16, label %10

16:                                               ; preds = %.lr.ph
  %17 = getelementptr inbounds i8, ptr %12, i64 32
  %18 = load i32, ptr %17, align 8
  br label %.loopexit

.loopexit:                                        ; preds = %10, %1, %16
  %.05 = phi i32 [ %18, %16 ], [ 0, %1 ], [ 0, %10 ]
  ret i32 %.05
}